; Function Attrs: nounwind uwtable
define ptr @l_Lean_Compiler_LCNF_Testing_assertForEachDeclAfterEachOccurrence(ptr noundef %0, ptr noundef %1, ptr noundef %2) local_unnamed_addr #0 {
  tail call void @lean_inc_heartbeat() #5
  %4 = tail call noalias ptr @mi_malloc_small(i64 noundef 40) #5
  %5 = icmp eq ptr %4, null
  br i1 %5, label %6, label %lean_alloc_closure.exit

6:                                                ; preds = %3
  tail call void @lean_internal_panic_out_of_memory() #6
  unreachable

lean_alloc_closure.exit:                          ; preds = %3
  %7 = getelementptr inbounds nuw i8, ptr %4, i64 4
  store i32 1, ptr %4, align 4, !tbaa !9
  store i32 -184549336, ptr %7, align 4
  %8 = getelementptr inbounds nuw i8, ptr %4, i64 8
  store ptr @l_Lean_Compiler_LCNF_Testing_assertForEachDeclAfterEachOccurrence___lambda__1___boxed, ptr %8, align 8, !tbaa !7
  %9 = getelementptr inbounds nuw i8, ptr %4, i64 16
  store i16 10, ptr %9, align 8, !tbaa !15
  %10 = getelementptr inbounds nuw i8, ptr %4, i64 18
  store i16 2, ptr %10, align 2, !tbaa !15
  %11 = getelementptr inbounds nuw i8, ptr %4, i64 24
  store ptr %0, ptr %11, align 8, !tbaa !7
  %12 = getelementptr inbounds nuw i8, ptr %4, i64 32
  store ptr %1, ptr %12, align 8, !tbaa !7
  %13 = load ptr, ptr @l_Lean_Compiler_LCNF_Testing_assertForEachDeclAfter___closed__1, align 8, !tbaa !7
  tail call void @lean_inc_heartbeat() #5
  %14 = tail call noalias ptr @mi_malloc_small(i64 noundef 40) #5
  %15 = icmp eq ptr %14, null
  br i1 %15, label %16, label %lean_alloc_closure.exit11

16:                                               ; preds = %lean_alloc_closure.exit
  tail call void @lean_internal_panic_out_of_memory() #6
  unreachable

lean_alloc_closure.exit11:                        ; preds = %lean_alloc_closure.exit
  %17 = getelementptr inbounds nuw i8, ptr %14, i64 4
  store i32 1, ptr %14, align 4, !tbaa !9
  store i32 -184549336, ptr %17, align 4
  %18 = getelementptr inbounds nuw i8, ptr %14, i64 8
  store ptr @l_ReaderT_bind___at_Lean_Compiler_LCNF_Testing_assertForEachDeclAfter___spec__2___rarg, ptr %18, align 8, !tbaa !7
  %19 = getelementptr inbounds nuw i8, ptr %14, i64 16
  store i16 9, ptr %19, align 8, !tbaa !15
  %20 = getelementptr inbounds nuw i8, ptr %14, i64 18
  store i16 2, ptr %20, align 2, !tbaa !15
  %21 = getelementptr inbounds nuw i8, ptr %14, i64 24
  store ptr %13, ptr %21, align 8, !tbaa !7
  %22 = getelementptr inbounds nuw i8, ptr %14, i64 32
  store ptr %4, ptr %22, align 8, !tbaa !7
  %23 = getelementptr inbounds nuw i8, ptr %2, i64 8
  %24 = load ptr, ptr %23, align 8, !tbaa !7
  %25 = ptrtoint ptr %24 to i64
  %26 = and i64 %25, 1
  %.not.i = icmp eq i64 %26, 0
  br i1 %.not.i, label %27, label %lean_inc.exit.i

27:                                               ; preds = %lean_alloc_closure.exit11
  %.val.i.i = load i32, ptr %24, align 4, !tbaa !9
  %28 = icmp sgt i32 %.val.i.i, 0
  br i1 %28, label %29, label %31, !prof !12

29:                                               ; preds = %27
  %30 = add nuw i32 %.val.i.i, 1
  store i32 %30, ptr %24, align 4, !tbaa !9
  br label %lean_inc.exit.i

31:                                               ; preds = %27
  %.not.i.i = icmp eq i32 %.val.i.i, 0
  br i1 %.not.i.i, label %lean_inc.exit.i, label %32

32:                                               ; preds = %31
  tail call void @lean_inc_ref_cold(ptr noundef nonnull %24) #5
  br label %lean_inc.exit.i

lean_inc.exit.i:                                  ; preds = %32, %31, %29, %lean_alloc_closure.exit11
  tail call void @lean_inc_heartbeat() #5
  %33 = tail call noalias ptr @mi_malloc_small(i64 noundef 40) #5
  %34 = icmp eq ptr %33, null
  br i1 %34, label %35, label %l_Lean_Compiler_LCNF_Testing_assertAfterEachOccurrence.exit

35:                                               ; preds = %lean_inc.exit.i
  tail call void @lean_internal_panic_out_of_memory() #6
  unreachable

l_Lean_Compiler_LCNF_Testing_assertAfterEachOccurrence.exit: ; preds = %lean_inc.exit.i
  %36 = getelementptr inbounds nuw i8, ptr %33, i64 4
  store i32 1, ptr %33, align 4, !tbaa !9
  store i32 -184549336, ptr %36, align 4
  %37 = getelementptr inbounds nuw i8, ptr %33, i64 8
  store ptr @l___private_Lean_Compiler_LCNF_Testing_0__Lean_Compiler_LCNF_Testing_assertAfterTest, ptr %37, align 8, !tbaa !7
  %38 = getelementptr inbounds nuw i8, ptr %33, i64 16
  store i16 3, ptr %38, align 8, !tbaa !15
  %39 = getelementptr inbounds nuw i8, ptr %33, i64 18
  store i16 2, ptr %39, align 2, !tbaa !15
  %40 = getelementptr inbounds nuw i8, ptr %33, i64 24
  store ptr %14, ptr %40, align 8, !tbaa !7
  %41 = getelementptr inbounds nuw i8, ptr %33, i64 32
  store ptr %2, ptr %41, align 8, !tbaa !7
  %42 = tail call ptr @l_Lean_Compiler_LCNF_PassInstaller_installAfterEach(ptr noundef %24, ptr noundef nonnull %33) #5
  ret ptr %42
}